; ModuleID = 'bench/cmake/original/archive_write_set_format_filter_by_ext.ll'
source_filename = "bench/cmake/original/archive_write_set_format_filter_by_ext.ll"
target datalayout = "e-m:e-p270:32:32-p271:32:32-p272:64:64-i64:64-i128:128-f80:128-n8:16:32:64-S128"
target triple = "x86_64-pc-linux-gnu"

%struct.anon = type { ptr, ptr, ptr }

@names = internal unnamed_addr constant [13 x %struct.anon] [%struct.anon { ptr @.str.1, ptr @archive_write_set_format_7zip, ptr @archive_write_add_filter_none }, %struct.anon { ptr @.str.2, ptr @archive_write_set_format_zip, ptr @archive_write_add_filter_none }, %struct.anon { ptr @.str.3, ptr @archive_write_set_format_zip, ptr @archive_write_add_filter_none }, %struct.anon { ptr @.str.4, ptr @archive_write_set_format_cpio, ptr @archive_write_add_filter_none }, %struct.anon { ptr @.str.5, ptr @archive_write_set_format_iso9660, ptr @archive_write_add_filter_none }, %struct.anon { ptr @.str.6, ptr @archive_write_set_format_ar_svr4, ptr @archive_write_add_filter_none }, %struct.anon { ptr @.str.7, ptr @archive_write_set_format_ar_svr4, ptr @archive_write_add_filter_none }, %struct.anon { ptr @.str.8, ptr @archive_write_set_format_pax_restricted, ptr @archive_write_add_filter_none }, %struct.anon { ptr @.str.9, ptr @archive_write_set_format_pax_restricted, ptr @archive_write_add_filter_gzip }, %struct.anon { ptr @.str.10, ptr @archive_write_set_format_pax_restricted, ptr @archive_write_add_filter_gzip }, %struct.anon { ptr @.str.11, ptr @archive_write_set_format_pax_restricted, ptr @archive_write_add_filter_bzip2 }, %struct.anon { ptr @.str.12, ptr @archive_write_set_format_pax_restricted, ptr @archive_write_add_filter_xz }, %struct.anon zeroinitializer], align 16
@.str = private unnamed_addr constant [20 x i8] c"No such format '%s'\00", align 1
@.str.1 = private unnamed_addr constant [4 x i8] c".7z\00", align 1
@.str.2 = private unnamed_addr constant [5 x i8] c".zip\00", align 1
@.str.3 = private unnamed_addr constant [5 x i8] c".jar\00", align 1
@.str.4 = private unnamed_addr constant [6 x i8] c".cpio\00", align 1
@.str.5 = private unnamed_addr constant [5 x i8] c".iso\00", align 1
@.str.6 = private unnamed_addr constant [3 x i8] c".a\00", align 1
@.str.7 = private unnamed_addr constant [4 x i8] c".ar\00", align 1
@.str.8 = private unnamed_addr constant [5 x i8] c".tar\00", align 1
@.str.9 = private unnamed_addr constant [5 x i8] c".tgz\00", align 1
@.str.10 = private unnamed_addr constant [8 x i8] c".tar.gz\00", align 1
@.str.11 = private unnamed_addr constant [9 x i8] c".tar.bz2\00", align 1
@.str.12 = private unnamed_addr constant [8 x i8] c".tar.xz\00", align 1

; Function Attrs: nounwind uwtable
define dso_local i32 @archive_write_set_format_filter_by_ext(ptr noundef %0, ptr noundef %1) local_unnamed_addr #0 {
  %3 = icmp eq ptr %1, null
  br i1 %3, label %get_array_index.exit.thread, label %.split.i

.split.i:                                         ; preds = %2
  %4 = tail call i64 @strlen(ptr noundef nonnull readonly dereferenceable(1) %1) #3
  br label %5

5:                                                ; preds = %cmpsuff.exit.thread.i, %.split.i
  %indvars.iv.i = phi i64 [ 0, %.split.i ], [ %indvars.iv.next.i, %cmpsuff.exit.thread.i ]
  %6 = phi ptr [ @.str.1, %.split.i ], [ %13, %cmpsuff.exit.thread.i ]
  %7 = tail call i64 @strlen(ptr noundef nonnull readonly dereferenceable(1) %6) #3
  %.not.i.i = icmp ult i64 %4, %7
  br i1 %.not.i.i, label %cmpsuff.exit.thread.i, label %cmpsuff.exit.i

cmpsuff.exit.i:                                   ; preds = %5
  %8 = sub nuw i64 %4, %7
  %9 = getelementptr inbounds nuw i8, ptr %1, i64 %8
  %10 = tail call i32 @strcmp(ptr noundef nonnull readonly dereferenceable(1) %9, ptr noundef nonnull readonly dereferenceable(1) %6) #3
  %11 = icmp eq i32 %10, 0
  br i1 %11, label %get_array_index.exit, label %cmpsuff.exit.thread.i

cmpsuff.exit.thread.i:                            ; preds = %cmpsuff.exit.i, %5
  %indvars.iv.next.i = add nuw nsw i64 %indvars.iv.i, 1
  %12 = getelementptr inbounds nuw [13 x %struct.anon], ptr @names, i64 0, i64 %indvars.iv.next.i
  %13 = load ptr, ptr %12, align 8, !tbaa !4
  %exitcond.i = icmp eq i64 %indvars.iv.next.i, 12
  br i1 %exitcond.i, label %get_array_index.exit.thread, label %5, !llvm.loop !10

get_array_index.exit:                             ; preds = %cmpsuff.exit.i
  %14 = and i64 %indvars.iv.i, 4294967295
  %15 = getelementptr inbounds nuw [13 x %struct.anon], ptr @names, i64 0, i64 %14
  %16 = getelementptr inbounds nuw i8, ptr %15, i64 8
  %17 = load ptr, ptr %16, align 8, !tbaa !12
  %18 = tail call i32 %17(ptr noundef %0) #4
  %19 = icmp eq i32 %18, 0
  br i1 %19, label %20, label %25

20:                                               ; preds = %get_array_index.exit
  %21 = getelementptr inbounds nuw i8, ptr %15, i64 16
  %22 = load ptr, ptr %21, align 8, !tbaa !13
  %23 = tail call i32 %22(ptr noundef %0) #4
  br label %25

get_array_index.exit.thread:                      ; preds = %cmpsuff.exit.thread.i, %2
  tail call void (ptr, i32, ptr, ...) @archive_set_error(ptr noundef %0, i32 noundef 22, ptr noundef nonnull @.str, ptr noundef %1) #4
  %24 = getelementptr inbounds nuw i8, ptr %0, i64 4
  store i32 32768, ptr %24, align 4, !tbaa !14
  br label %25

25:                                               ; preds = %20, %get_array_index.exit, %get_array_index.exit.thread
  %.1 = phi i32 [ -30, %get_array_index.exit.thread ], [ %23, %20 ], [ %18, %get_array_index.exit ]
  ret i32 %.1
}

declare void @archive_set_error(ptr noundef, i32 noundef, ptr noundef, ...) local_unnamed_addr #1

; Function Attrs: nounwind uwtable
define dso_local i32 @archive_write_set_format_filter_by_ext_def(ptr noundef %0, ptr noundef %1, ptr noundef readonly %2) local_unnamed_addr #0 {
  %4 = icmp eq ptr %1, null
  br i1 %4, label %get_array_index.exit.thread, label %.split.i

.split.i:                                         ; preds = %3
  %5 = tail call i64 @strlen(ptr noundef nonnull readonly dereferenceable(1) %1) #3
  br label %6

6:                                                ; preds = %cmpsuff.exit.thread.i, %.split.i
  %indvars.iv.i = phi i64 [ 0, %.split.i ], [ %indvars.iv.next.i, %cmpsuff.exit.thread.i ]
  %7 = phi ptr [ @.str.1, %.split.i ], [ %14, %cmpsuff.exit.thread.i ]
  %8 = tail call i64 @strlen(ptr noundef nonnull readonly dereferenceable(1) %7) #3
  %.not.i.i = icmp ult i64 %5, %8
  br i1 %.not.i.i, label %cmpsuff.exit.thread.i, label %cmpsuff.exit.i

cmpsuff.exit.i:                                   ; preds = %6
  %9 = sub nuw i64 %5, %8
  %10 = getelementptr inbounds nuw i8, ptr %1, i64 %9
  %11 = tail call i32 @strcmp(ptr noundef nonnull readonly dereferenceable(1) %10, ptr noundef nonnull readonly dereferenceable(1) %7) #3
  %12 = icmp eq i32 %11, 0
  br i1 %12, label %get_array_index.exit25.thread28, label %cmpsuff.exit.thread.i

cmpsuff.exit.thread.i:                            ; preds = %cmpsuff.exit.i, %6
  %indvars.iv.next.i = add nuw nsw i64 %indvars.iv.i, 1
  %13 = getelementptr inbounds nuw [13 x %struct.anon], ptr @names, i64 0, i64 %indvars.iv.next.i
  %14 = load ptr, ptr %13, align 8, !tbaa !4
  %exitcond.i = icmp eq i64 %indvars.iv.next.i, 12
  br i1 %exitcond.i, label %get_array_index.exit.thread, label %6, !llvm.loop !10

get_array_index.exit.thread:                      ; preds = %cmpsuff.exit.thread.i, %3
  %15 = icmp eq ptr %2, null
  br i1 %15, label %get_array_index.exit25.thread, label %.split.i16

.split.i16:                                       ; preds = %get_array_index.exit.thread
  %16 = tail call i64 @strlen(ptr noundef nonnull readonly dereferenceable(1) %2) #3
  br label %17

17:                                               ; preds = %cmpsuff.exit.thread.i20, %.split.i16
  %indvars.iv.i17 = phi i64 [ 0, %.split.i16 ], [ %indvars.iv.next.i21, %cmpsuff.exit.thread.i20 ]
  %18 = phi ptr [ @.str.1, %.split.i16 ], [ %25, %cmpsuff.exit.thread.i20 ]
  %19 = tail call i64 @strlen(ptr noundef nonnull readonly dereferenceable(1) %18) #3
  %.not.i.i18 = icmp ult i64 %16, %19
  br i1 %.not.i.i18, label %cmpsuff.exit.thread.i20, label %cmpsuff.exit.i19

cmpsuff.exit.i19:                                 ; preds = %17
  %20 = sub nuw i64 %16, %19
  %21 = getelementptr inbounds nuw i8, ptr %2, i64 %20
  %22 = tail call i32 @strcmp(ptr noundef nonnull readonly dereferenceable(1) %21, ptr noundef nonnull readonly dereferenceable(1) %18) #3
  %23 = icmp eq i32 %22, 0
  br i1 %23, label %get_array_index.exit25.thread28, label %cmpsuff.exit.thread.i20

cmpsuff.exit.thread.i20:                          ; preds = %cmpsuff.exit.i19, %17
  %indvars.iv.next.i21 = add nuw nsw i64 %indvars.iv.i17, 1
  %24 = getelementptr inbounds nuw [13 x %struct.anon], ptr @names, i64 0, i64 %indvars.iv.next.i21
  %25 = load ptr, ptr %24, align 8, !tbaa !4
  %exitcond.i22 = icmp eq i64 %indvars.iv.next.i21, 12
  br i1 %exitcond.i22, label %get_array_index.exit25.thread, label %17, !llvm.loop !10

get_array_index.exit25.thread28:                  ; preds = %cmpsuff.exit.i, %cmpsuff.exit.i19
  %.01330.in = phi i64 [ %indvars.iv.i17, %cmpsuff.exit.i19 ], [ %indvars.iv.i, %cmpsuff.exit.i ]
  %26 = and i64 %.01330.in, 4294967295
  %27 = getelementptr inbounds nuw [13 x %struct.anon], ptr @names, i64 0, i64 %26
  %28 = getelementptr inbounds nuw i8, ptr %27, i64 8
  %29 = load ptr, ptr %28, align 8, !tbaa !12
  %30 = tail call i32 %29(ptr noundef %0) #4
  %31 = icmp eq i32 %30, 0
  br i1 %31, label %32, label %37

32:                                               ; preds = %get_array_index.exit25.thread28
  %33 = getelementptr inbounds nuw i8, ptr %27, i64 16
  %34 = load ptr, ptr %33, align 8, !tbaa !13
  %35 = tail call i32 %34(ptr noundef %0) #4
  br label %37

get_array_index.exit25.thread:                    ; preds = %cmpsuff.exit.thread.i20, %get_array_index.exit.thread
  tail call void (ptr, i32, ptr, ...) @archive_set_error(ptr noundef %0, i32 noundef 22, ptr noundef nonnull @.str, ptr noundef %1) #4
  %36 = getelementptr inbounds nuw i8, ptr %0, i64 4
  store i32 32768, ptr %36, align 4, !tbaa !14
  br label %37

37:                                               ; preds = %32, %get_array_index.exit25.thread28, %get_array_index.exit25.thread
  %.1 = phi i32 [ -30, %get_array_index.exit25.thread ], [ %35, %32 ], [ %30, %get_array_index.exit25.thread28 ]
  ret i32 %.1
}

; Function Attrs: mustprogress nofree nounwind willreturn memory(argmem: read)
declare i64 @strlen(ptr noundef captures(none)) local_unnamed_addr #2

; Function Attrs: mustprogress nofree nounwind willreturn memory(argmem: read)
declare i32 @strcmp(ptr noundef captures(none), ptr noundef captures(none)) local_unnamed_addr #2

declare i32 @archive_write_set_format_7zip(ptr noundef) #1

declare i32 @archive_write_add_filter_none(ptr noundef) #1

declare i32 @archive_write_set_format_zip(ptr noundef) #1

declare i32 @archive_write_set_format_cpio(ptr noundef) #1

declare i32 @archive_write_set_format_iso9660(ptr noundef) #1

declare i32 @archive_write_set_format_ar_svr4(ptr noundef) #1

declare i32 @archive_write_set_format_pax_restricted(ptr noundef) #1

declare i32 @archive_write_add_filter_gzip(ptr noundef) #1

declare i32 @archive_write_add_filter_bzip2(ptr noundef) #1

declare i32 @archive_write_add_filter_xz(ptr noundef) #1


!llvm.module.flags = !{!0, !1, !2, !3}

!0 = !{i32 1, !"wchar_size", i32 4}
!1 = !{i32 8, !"PIC Level", i32 2}
!2 = !{i32 7, !"PIE Level", i32 2}
!3 = !{i32 7, !"uwtable", i32 2}
!4 = !{!5, !6, i64 0}
!5 = !{!"", !6, i64 0, !7, i64 8, !7, i64 16}
!6 = !{!"p1 omnipotent char", !7, i64 0}
!7 = !{!"any pointer", !8, i64 0}
!8 = !{!"omnipotent char", !9, i64 0}
!9 = !{!"Simple C/C++ TBAA"}
!10 = distinct !{!10, !11}
!11 = !{!"llvm.loop.mustprogress"}
!12 = !{!5, !7, i64 8}
!13 = !{!5, !7, i64 16}
!14 = !{!15, !16, i64 4}
!15 = !{!"archive", !16, i64 0, !16, i64 4, !17, i64 8, !16, i64 16, !6, i64 24, !16, i64 32, !16, i64 36, !6, i64 40, !18, i64 48, !6, i64 72, !16, i64 80, !16, i64 84, !20, i64 88, !6, i64 96, !19, i64 104, !19, i64 112, !19, i64 120, !8, i64 128, !19, i64 136}
!16 = !{!"int", !8, i64 0}
!17 = !{!"p1 _ZTS14archive_vtable", !7, i64 0}
!18 = !{!"archive_string", !6, i64 0, !19, i64 8, !19, i64 16}
!19 = !{!"long", !8, i64 0}
!20 = !{!"p1 _ZTS19archive_string_conv", !7, i64 0}
